target datalayout = "e-m:e-p270:32:32-p271:32:32-p272:64:64-i64:64-i128:128-f80:128-n8:16:32:64-S128"
target triple = "x86_64-pc-linux-gnu"

%struct.sh_st = type { ptr, i64, ptr, i64, ptr, i64, i64, ptr, ptr, i64 }
%struct.sh_list_st = type { ptr, ptr }

@sh = internal global %struct.sh_st zeroinitializer, align 8
@.str.1 = private unnamed_addr constant [28 x i8] c"../openssl/crypto/mem_sec.c\00", align 1
@.str.11 = private unnamed_addr constant [40 x i8] c"assertion failed: WITHIN_FREELIST(list)\00", align 1
@.str.12 = private unnamed_addr constant [36 x i8] c"assertion failed: WITHIN_ARENA(ptr)\00", align 1
@.str.13 = private unnamed_addr constant [65 x i8] c"assertion failed: temp->next == NULL || WITHIN_ARENA(temp->next)\00", align 1
@.str.14 = private unnamed_addr constant [54 x i8] c"assertion failed: (char **)temp->next->p_next == list\00", align 1

; Function Attrs: nounwind uwtable
define internal void @sh_add_to_list(ptr noundef %0, ptr noundef %1) #0 {
  %3 = alloca ptr, align 8
  %4 = alloca ptr, align 8
  %5 = alloca ptr, align 8
  store ptr %0, ptr %3, align 8, !tbaa !32
  store ptr %1, ptr %4, align 8, !tbaa !26
  call void @llvm.lifetime.start.p0(i64 8, ptr %5) #7
  %6 = load ptr, ptr %3, align 8, !tbaa !32
  %7 = load ptr, ptr getelementptr inbounds nuw (%struct.sh_st, ptr @sh, i32 0, i32 4), align 8, !tbaa !20
  %8 = icmp uge ptr %6, %7
  br i1 %8, label %9, label %16

9:                                                ; preds = %2
  %10 = load ptr, ptr %3, align 8, !tbaa !32
  %11 = load ptr, ptr getelementptr inbounds nuw (%struct.sh_st, ptr @sh, i32 0, i32 4), align 8, !tbaa !20
  %12 = load i64, ptr getelementptr inbounds nuw (%struct.sh_st, ptr @sh, i32 0, i32 5), align 8, !tbaa !17
  %13 = getelementptr inbounds ptr, ptr %11, i64 %12
  %14 = icmp ult ptr %10, %13
  br i1 %14, label %15, label %16

15:                                               ; preds = %9
  br label %18

16:                                               ; preds = %9, %2
  call void @OPENSSL_die(ptr noundef @.str.11, ptr noundef @.str.1, i32 noundef 398) #8
  unreachable

17:                                               ; No predecessors!
  br label %18

18:                                               ; preds = %17, %15
  %19 = load ptr, ptr %4, align 8, !tbaa !26
  %20 = load ptr, ptr getelementptr inbounds nuw (%struct.sh_st, ptr @sh, i32 0, i32 2), align 8, !tbaa !25
  %21 = icmp uge ptr %19, %20
  br i1 %21, label %22, label %29

22:                                               ; preds = %18
  %23 = load ptr, ptr %4, align 8, !tbaa !26
  %24 = load ptr, ptr getelementptr inbounds nuw (%struct.sh_st, ptr @sh, i32 0, i32 2), align 8, !tbaa !25
  %25 = load i64, ptr getelementptr inbounds nuw (%struct.sh_st, ptr @sh, i32 0, i32 3), align 8, !tbaa !11
  %26 = getelementptr inbounds nuw i8, ptr %24, i64 %25
  %27 = icmp ult ptr %23, %26
  br i1 %27, label %28, label %29

28:                                               ; preds = %22
  br label %31

29:                                               ; preds = %22, %18
  call void @OPENSSL_die(ptr noundef @.str.12, ptr noundef @.str.1, i32 noundef 399) #8
  unreachable

30:                                               ; No predecessors!
  br label %31

31:                                               ; preds = %30, %28
  %32 = load ptr, ptr %4, align 8, !tbaa !26
  store ptr %32, ptr %5, align 8, !tbaa !33
  %33 = load ptr, ptr %3, align 8, !tbaa !32
  %34 = load ptr, ptr %33, align 8, !tbaa !33
  %35 = load ptr, ptr %5, align 8, !tbaa !33
  %36 = getelementptr inbounds nuw %struct.sh_list_st, ptr %35, i32 0, i32 0
  store ptr %34, ptr %36, align 8, !tbaa !35
  %37 = load ptr, ptr %5, align 8, !tbaa !33
  %38 = getelementptr inbounds nuw %struct.sh_list_st, ptr %37, i32 0, i32 0
  %39 = load ptr, ptr %38, align 8, !tbaa !35
  %40 = icmp eq ptr %39, null
  br i1 %40, label %55, label %41

41:                                               ; preds = %31
  %42 = load ptr, ptr %5, align 8, !tbaa !33
  %43 = getelementptr inbounds nuw %struct.sh_list_st, ptr %42, i32 0, i32 0
  %44 = load ptr, ptr %43, align 8, !tbaa !35
  %45 = load ptr, ptr getelementptr inbounds nuw (%struct.sh_st, ptr @sh, i32 0, i32 2), align 8, !tbaa !25
  %46 = icmp uge ptr %44, %45
  br i1 %46, label %47, label %56

47:                                               ; preds = %41
  %48 = load ptr, ptr %5, align 8, !tbaa !33
  %49 = getelementptr inbounds nuw %struct.sh_list_st, ptr %48, i32 0, i32 0
  %50 = load ptr, ptr %49, align 8, !tbaa !35
  %51 = load ptr, ptr getelementptr inbounds nuw (%struct.sh_st, ptr @sh, i32 0, i32 2), align 8, !tbaa !25
  %52 = load i64, ptr getelementptr inbounds nuw (%struct.sh_st, ptr @sh, i32 0, i32 3), align 8, !tbaa !11
  %53 = getelementptr inbounds nuw i8, ptr %51, i64 %52
  %54 = icmp ult ptr %50, %53
  br i1 %54, label %55, label %56

55:                                               ; preds = %47, %31
  br label %58

56:                                               ; preds = %47, %41
  call void @OPENSSL_die(ptr noundef @.str.13, ptr noundef @.str.1, i32 noundef 403) #8
  unreachable

57:                                               ; No predecessors!
  br label %58

58:                                               ; preds = %57, %55
  %59 = load ptr, ptr %3, align 8, !tbaa !32
  %60 = load ptr, ptr %5, align 8, !tbaa !33
  %61 = getelementptr inbounds nuw %struct.sh_list_st, ptr %60, i32 0, i32 1
  store ptr %59, ptr %61, align 8, !tbaa !38
  %62 = load ptr, ptr %5, align 8, !tbaa !33
  %63 = getelementptr inbounds nuw %struct.sh_list_st, ptr %62, i32 0, i32 0
  %64 = load ptr, ptr %63, align 8, !tbaa !35
  %65 = icmp ne ptr %64, null
  br i1 %65, label %66, label %84

66:                                               ; preds = %58
  %67 = load ptr, ptr %5, align 8, !tbaa !33
  %68 = getelementptr inbounds nuw %struct.sh_list_st, ptr %67, i32 0, i32 0
  %69 = load ptr, ptr %68, align 8, !tbaa !35
  %70 = getelementptr inbounds nuw %struct.sh_list_st, ptr %69, i32 0, i32 1
  %71 = load ptr, ptr %70, align 8, !tbaa !38
  %72 = load ptr, ptr %3, align 8, !tbaa !32
  %73 = icmp eq ptr %71, %72
  br i1 %73, label %74, label %75

74:                                               ; preds = %66
  br label %77

75:                                               ; preds = %66
  call void @OPENSSL_die(ptr noundef @.str.14, ptr noundef @.str.1, i32 noundef 407) #8
  unreachable

76:                                               ; No predecessors!
  br label %77

77:                                               ; preds = %76, %74
  %78 = load ptr, ptr %5, align 8, !tbaa !33
  %79 = getelementptr inbounds nuw %struct.sh_list_st, ptr %78, i32 0, i32 0
  %80 = load ptr, ptr %5, align 8, !tbaa !33
  %81 = getelementptr inbounds nuw %struct.sh_list_st, ptr %80, i32 0, i32 0
  %82 = load ptr, ptr %81, align 8, !tbaa !35
  %83 = getelementptr inbounds nuw %struct.sh_list_st, ptr %82, i32 0, i32 1
  store ptr %79, ptr %83, align 8, !tbaa !38
  br label %84

84:                                               ; preds = %77, %58
  %85 = load ptr, ptr %4, align 8, !tbaa !26
  %86 = load ptr, ptr %3, align 8, !tbaa !32
  store ptr %85, ptr %86, align 8, !tbaa !26
  call void @llvm.lifetime.end.p0(i64 8, ptr %5) #7
  ret void
}