; Function Attrs: nounwind uwtable
define internal fastcc void @sh_add_to_list(ptr noundef %0, ptr noundef %1) unnamed_addr #0 {
  %3 = load ptr, ptr getelementptr inbounds nuw (i8, ptr @sh, i64 32), align 8, !tbaa !17
  %.not = icmp uge ptr %0, %3
  %4 = load i64, ptr getelementptr inbounds nuw (i8, ptr @sh, i64 40), align 8
  %5 = getelementptr inbounds ptr, ptr %3, i64 %4
  %6 = icmp ult ptr %0, %5
  %or.cond = select i1 %.not, i1 %6, i1 false
  br i1 %or.cond, label %8, label %7

7:                                                ; preds = %2
  tail call void @OPENSSL_die(ptr noundef nonnull @.str.11, ptr noundef nonnull @.str.1, i32 noundef 398) #9
  unreachable

8:                                                ; preds = %2
  %9 = load ptr, ptr getelementptr inbounds nuw (i8, ptr @sh, i64 16), align 8, !tbaa !22
  %.not25 = icmp uge ptr %1, %9
  %10 = load i64, ptr getelementptr inbounds nuw (i8, ptr @sh, i64 24), align 8
  %11 = getelementptr inbounds nuw i8, ptr %9, i64 %10
  %12 = icmp ult ptr %1, %11
  %or.cond32 = select i1 %.not25, i1 %12, i1 false
  br i1 %or.cond32, label %14, label %13

13:                                               ; preds = %8
  tail call void @OPENSSL_die(ptr noundef nonnull @.str.12, ptr noundef nonnull @.str.1, i32 noundef 399) #9
  unreachable

14:                                               ; preds = %8
  %15 = load ptr, ptr %0, align 8, !tbaa !36
  store ptr %15, ptr %1, align 8, !tbaa !31
  %16 = icmp eq ptr %15, null
  br i1 %16, label %.thread, label %18

.thread:                                          ; preds = %14
  %17 = getelementptr inbounds nuw i8, ptr %1, i64 8
  store ptr %0, ptr %17, align 8, !tbaa !35
  br label %28

18:                                               ; preds = %14
  %.not26 = icmp uge ptr %15, %9
  %19 = icmp ult ptr %15, %11
  %or.cond35 = select i1 %.not26, i1 %19, i1 false
  br i1 %or.cond35, label %21, label %20

20:                                               ; preds = %18
  tail call void @OPENSSL_die(ptr noundef nonnull @.str.13, ptr noundef nonnull @.str.1, i32 noundef 403) #9
  unreachable

21:                                               ; preds = %18
  %22 = getelementptr inbounds nuw i8, ptr %1, i64 8
  store ptr %0, ptr %22, align 8, !tbaa !35
  %23 = getelementptr inbounds nuw i8, ptr %15, i64 8
  %24 = load ptr, ptr %23, align 8, !tbaa !35
  %25 = icmp eq ptr %24, %0
  br i1 %25, label %27, label %26

26:                                               ; preds = %21
  tail call void @OPENSSL_die(ptr noundef nonnull @.str.14, ptr noundef nonnull @.str.1, i32 noundef 407) #9
  unreachable

27:                                               ; preds = %21
  store ptr %1, ptr %23, align 8, !tbaa !35
  br label %28

28:                                               ; preds = %.thread, %27
  store ptr %1, ptr %0, align 8, !tbaa !27
  ret void
}